target datalayout = "e-m:e-p270:32:32-p271:32:32-p272:64:64-i64:64-i128:128-f80:128-n8:16:32:64-S128"
target triple = "x86_64-pc-linux-gnu"

@proto_register_cdp.ett = internal global [7 x ptr] [ptr @ett_cdp, ptr @ett_cdp_tlv, ptr @ett_cdp_nrgyz_tlv, ptr @ett_cdp_address, ptr @ett_cdp_capabilities, ptr @ett_cdp_checksum, ptr @ett_cdp_spare_poe_tlv], align 16
@.str.176 = private unnamed_addr constant [25 x i8] c"Cisco Discovery Protocol\00", align 1
@.str.177 = private unnamed_addr constant [4 x i8] c"CDP\00", align 1
@.str.178 = private unnamed_addr constant [4 x i8] c"cdp\00", align 1
@proto_cdp = internal global i32 0, align 4
@cdp_handle = internal global ptr null, align 8

; Function Attrs: null_pointer_is_valid sspstrong uwtable
define hidden void @proto_register_cdp() #0 {
  %1 = alloca ptr, align 8
  call void @llvm.lifetime.start.p0(i64 8, ptr %1) #4
  %2 = call i32 @proto_register_protocol(ptr noundef @.str.176, ptr noundef @.str.177, ptr noundef @.str.178)
  store i32 %2, ptr @proto_cdp, align 4
  %3 = load i32, ptr @proto_cdp, align 4
  %4 = call ptr @register_dissector(ptr noundef @.str.178, ptr noundef @dissect_cdp, i32 noundef %3)
  store ptr %4, ptr @cdp_handle, align 8
  %5 = load i32, ptr @proto_cdp, align 4
  call void @proto_register_field_array(i32 noundef %5, ptr noundef @proto_register_cdp.hf, i32 noundef 86)
  call void @proto_register_subtree_array(ptr noundef @proto_register_cdp.ett, i32 noundef 7)
  %6 = load i32, ptr @proto_cdp, align 4
  %7 = call ptr @expert_register_protocol(i32 noundef %6)
  store ptr %7, ptr %1, align 8
  %8 = load ptr, ptr %1, align 8
  call void @expert_register_field_array(ptr noundef %8, ptr noundef @proto_register_cdp.ei, i32 noundef 3)
  call void @llvm.lifetime.end.p0(i64 8, ptr %1) #4
  ret void
}